Certificate:
    Data:
        Version: 1 (0x0)
        Serial Number: 5 (0x5)
        Signature Algorithm: sha256WithRSAEncryption
        Issuer: C=US, ST=MA, L=Boston, O=OMG-DDS SIG (Identity CA), CN=OMG-DDS (Iden CA)/emailAddress=dds@omg.org
        Validity
            Not Before: Aug 16 17:39:39 2023 GMT
            Not After : Aug 13 17:39:39 2033 GMT
        Subject: C=ES, ST=MA, O=eProsima, CN=CN_TEST_DDS-SECURITY_EPROSIMA_FASTRTPS/emailAddress=support@eprosima.com
        Subject Public Key Info:
            Public Key Algorithm: rsaEncryption
                Public-Key: (2048 bit)
                Modulus:
                    00:b3:d0:27:47:ec:63:1a:ef:5d:7b:60:5f:88:c8:
                    f5:45:92:f8:0e:0b:8d:c7:c8:d1:ff:d7:d3:56:57:
                    17:4d:c1:13:90:29:d7:11:bf:1d:da:d3:46:f8:a3:
                    3a:dc:9f:9b:2f:92:3c:96:03:e1:fa:40:5c:8a:e0:
                    82:f7:11:49:b1:f1:7a:8e:99:ea:8d:5c:0a:8a:d4:
                    83:22:c2:7c:be:6c:79:cc:e6:76:ce:cd:a3:53:ca:
                    c3:0e:06:9e:1f:c2:a2:db:51:ec:4d:bc:f7:a7:08:
                    e4:65:e5:5f:d0:88:0d:fe:46:f2:b5:70:06:2c:40:
                    35:60:82:f0:4b:e6:ea:42:f6:cb:71:08:dd:87:1e:
                    4c:37:34:fc:f6:55:dc:d8:4a:03:b5:a2:5e:bb:4b:
                    71:50:cf:d6:f4:68:26:ae:06:f1:b2:b0:af:f2:e3:
                    c8:2d:4b:e6:8e:b2:10:f9:60:a1:55:ae:85:26:40:
                    50:ad:b2:b0:f9:f9:b3:de:39:22:70:34:c4:33:02:
                    e5:76:9f:9d:19:18:75:5b:6e:21:f6:10:58:32:4a:
                    c2:90:88:04:84:3c:56:58:85:b9:59:6c:52:75:06:
                    cd:5f:d4:38:ac:da:48:75:08:fb:0e:ac:50:c7:2a:
                    68:26:bc:81:48:09:40:69:79:90:9f:a8:95:63:fc:
                    76:ad
                Exponent: 65537 (0x10001)
    Signature Algorithm: sha256WithRSAEncryption
    Signature Value:
        18:34:76:44:30:fd:90:f5:f1:42:5f:f4:8e:1d:49:f9:ee:58:
        a0:bd:97:b7:fe:e4:97:3f:2d:fa:4d:2f:e9:51:01:06:be:38:
        3b:27:5c:40:55:01:e7:1c:07:4e:99:81:c0:24:8c:56:63:7f:
        bd:49:43:ae:09:72:5e:70:d3:d2:e7:bd:49:3e:57:a0:b4:f1:
        67:fc:4a:99:0c:b2:71:16:86:66:1d:03:3e:e1:f3:8d:22:4c:
        74:75:1e:d8:d4:ba:2b:33:04:4d:9f:cf:3e:d1:66:a6:e7:d4:
        f8:d2:bc:ee:26:b3:c0:2c:2b:a5:48:98:98:7d:03:9a:9e:81:
        53:3f:37:19:79:57:88:64:0d:1b:20:47:ef:d6:36:9f:2a:12:
        cf:b4:47:70:2a:b4:df:34:d6:a4:93:2e:37:b5:23:7e:c2:1e:
        81:b8:03:50:c6:54:9f:1f:c6:ca:e2:22:1c:f8:63:9e:60:01:
        56:78:a9:37:62:c1:f9:28:74:7e:52:05:dc:2a:be:75:d7:93:
        90:88:db:04:13:f4:58:e6:e2:bd:bd:7d:23:e2:aa:29:81:9d:
        fb:83:5b:33:3b:63:44:1e:75:d4:3a:26:f4:f5:51:33:e4:c7:
        f1:3e:b7:1b:d3:f1:4a:84:68:70:ec:dd:9c:ba:82:d1:97:ab:
        17:57:a2:df
-----BEGIN CERTIFICATE-----
MIIDgDCCAmgCAQUwDQYJKoZIhvcNAQELBQAwgYcxCzAJBgNVBAYTAlVTMQswCQYD
VQQIDAJNQTEPMA0GA1UEBwwGQm9zdG9uMSIwIAYDVQQKDBlPTUctRERTIFNJRyAo
SWRlbnRpdHkgQ0EpMRowGAYDVQQDDBFPTUctRERTIChJZGVuIENBKTEaMBgGCSqG
SIb3DQEJARYLZGRzQG9tZy5vcmcwHhcNMjMwODE2MTczOTM5WhcNMzMwODEzMTcz
OTM5WjCBgzELMAkGA1UEBhMCRVMxCzAJBgNVBAgMAk1BMREwDwYDVQQKDAhlUHJv
c2ltYTEvMC0GA1UEAwwmQ05fVEVTVF9ERFMtU0VDVVJJVFlfRVBST1NJTUFfRkFT
VFJUUFMxIzAhBgkqhkiG9w0BCQEWFHN1cHBvcnRAZXByb3NpbWEuY29tMIIBIjAN
BgkqhkiG9w0BAQEFAAOCAQ8AMIIBCgKCAQEAs9AnR+xjGu9de2BfiMj1RZL4DguN
x8jR/9fTVlcXTcETkCnXEb8d2tNG+KM63J+bL5I8lgPh+kBciuCC9xFJsfF6jpnq
jVwKitSDIsJ8vmx5zOZ2zs2jU8rDDgaeH8Ki21HsTbz3pwjkZeVf0IgN/kbytXAG
LEA1YILwS+bqQvbLcQjdhx5MNzT89lXc2EoDtaJeu0txUM/W9GgmrgbxsrCv8uPI
LUvmjrIQ+WChVa6FJkBQrbKw+fmz3jkicDTEMwLldp+dGRh1W24h9hBYMkrCkIgE
hDxWWIW5WWxSdQbNX9Q4rNpIdQj7DqxQxypoJryBSAlAaXmQn6iVY/x2rQIDAQAB
MA0GCSqGSIb3DQEBCwUAA4IBAQAYNHZEMP2Q9fFCX/SOHUn57ligvZe3/uSXPy36
TS/pUQEGvjg7J1xAVQHnHAdOmYHAJIxWY3+9SUOuCXJecNPS571JPlegtPFn/EqZ
DLJxFoZmHQM+4fONIkx0dR7Y1LorMwRNn88+0Wam59T40rzuJrPALCulSJiYfQOa
noFTPzcZeVeIZA0bIEfv1jafKhLPtEdwKrTfNNakky43tSN+wh6BuANQxlSfH8bK
4iIc+GOeYAFWeKk3YsH5KHR+UgXcKr5115OQiNsEE/RY5uK9vX0j4qopgZ37g1sz
O2NEHnXUOib09VEz5MfxPrcb0/FKhGhw7N2cuoLRl6sXV6Lf
-----END CERTIFICATE-----
