Certificate:
    Data:
        Version: 1 (0x0)
        Serial Number: 5 (0x5)
    Signature Algorithm: sha256WithRSAEncryption
        Issuer: C=US, ST=MA, L=Boston, O=OMG-DDS SIG (Identity CA), CN=OMG-DDS (Iden CA)/emailAddress=dds@omg.org
        Validity
            Not Before: Oct 19 06:34:21 2018 GMT
            Not After : Oct 16 06:34:21 2028 GMT
        Subject: C=ES, ST=MA, O=eProsima, CN=CN_TEST_DDS-SECURITY_EPROSIMA_FASTRTPS/emailAddress=support@eprosima.com
        Subject Public Key Info:
            Public Key Algorithm: rsaEncryption
                Public-Key: (2048 bit)
                Modulus:
                    00:b3:d0:27:47:ec:63:1a:ef:5d:7b:60:5f:88:c8:
                    f5:45:92:f8:0e:0b:8d:c7:c8:d1:ff:d7:d3:56:57:
                    17:4d:c1:13:90:29:d7:11:bf:1d:da:d3:46:f8:a3:
                    3a:dc:9f:9b:2f:92:3c:96:03:e1:fa:40:5c:8a:e0:
                    82:f7:11:49:b1:f1:7a:8e:99:ea:8d:5c:0a:8a:d4:
                    83:22:c2:7c:be:6c:79:cc:e6:76:ce:cd:a3:53:ca:
                    c3:0e:06:9e:1f:c2:a2:db:51:ec:4d:bc:f7:a7:08:
                    e4:65:e5:5f:d0:88:0d:fe:46:f2:b5:70:06:2c:40:
                    35:60:82:f0:4b:e6:ea:42:f6:cb:71:08:dd:87:1e:
                    4c:37:34:fc:f6:55:dc:d8:4a:03:b5:a2:5e:bb:4b:
                    71:50:cf:d6:f4:68:26:ae:06:f1:b2:b0:af:f2:e3:
                    c8:2d:4b:e6:8e:b2:10:f9:60:a1:55:ae:85:26:40:
                    50:ad:b2:b0:f9:f9:b3:de:39:22:70:34:c4:33:02:
                    e5:76:9f:9d:19:18:75:5b:6e:21:f6:10:58:32:4a:
                    c2:90:88:04:84:3c:56:58:85:b9:59:6c:52:75:06:
                    cd:5f:d4:38:ac:da:48:75:08:fb:0e:ac:50:c7:2a:
                    68:26:bc:81:48:09:40:69:79:90:9f:a8:95:63:fc:
                    76:ad
                Exponent: 65537 (0x10001)
    Signature Algorithm: sha256WithRSAEncryption
         c3:04:cc:83:53:03:b8:9e:70:fc:99:1e:bd:2a:3f:f3:82:3b:
         24:5a:7c:fc:4d:91:7b:1a:94:e9:32:63:f2:72:f9:1a:28:a3:
         12:5a:dd:00:b5:ec:ac:ec:72:81:32:cd:d5:4d:d0:1a:98:9e:
         88:db:08:01:d7:7c:10:f7:81:49:74:e2:e7:1f:93:53:7a:55:
         94:7d:0f:53:22:28:ee:7e:9f:23:b1:0d:55:cc:87:06:aa:1f:
         af:37:98:49:a9:f8:4c:23:7d:59:d5:c3:47:be:fb:2c:0c:ee:
         c6:2e:39:5d:a0:c1:98:6a:46:8e:c9:ff:3d:c4:4f:d3:51:18:
         1d:4c:40:8a:f5:a6:be:3c:6d:48:7b:fe:53:46:65:9b:84:eb:
         11:8e:32:b1:09:40:79:39:93:b6:e2:44:8b:38:6c:2e:a8:6f:
         8b:70:2f:64:2e:dd:31:98:6c:f4:df:be:8a:75:c5:5f:8f:4b:
         33:59:25:61:0b:db:dc:b7:f7:9b:b0:16:31:0b:55:86:be:84:
         6d:ec:f4:19:2c:f5:c5:4a:e3:02:1f:6b:36:ff:b4:e4:cc:05:
         a3:1c:39:e8:81:87:ce:a9:a5:72:41:62:e2:db:1e:69:d7:ae:
         ec:1c:cf:72:15:71:f1:8e:bb:9a:d9:f3:a3:0b:93:4e:cd:69:
         b2:81:9f:3d
-----BEGIN CERTIFICATE-----
MIIDgDCCAmgCAQUwDQYJKoZIhvcNAQELBQAwgYcxCzAJBgNVBAYTAlVTMQswCQYD
VQQIDAJNQTEPMA0GA1UEBwwGQm9zdG9uMSIwIAYDVQQKDBlPTUctRERTIFNJRyAo
SWRlbnRpdHkgQ0EpMRowGAYDVQQDDBFPTUctRERTIChJZGVuIENBKTEaMBgGCSqG
SIb3DQEJARYLZGRzQG9tZy5vcmcwHhcNMTgxMDE5MDYzNDIxWhcNMjgxMDE2MDYz
NDIxWjCBgzELMAkGA1UEBhMCRVMxCzAJBgNVBAgMAk1BMREwDwYDVQQKDAhlUHJv
c2ltYTEvMC0GA1UEAwwmQ05fVEVTVF9ERFMtU0VDVVJJVFlfRVBST1NJTUFfRkFT
VFJUUFMxIzAhBgkqhkiG9w0BCQEWFHN1cHBvcnRAZXByb3NpbWEuY29tMIIBIjAN
BgkqhkiG9w0BAQEFAAOCAQ8AMIIBCgKCAQEAs9AnR+xjGu9de2BfiMj1RZL4DguN
x8jR/9fTVlcXTcETkCnXEb8d2tNG+KM63J+bL5I8lgPh+kBciuCC9xFJsfF6jpnq
jVwKitSDIsJ8vmx5zOZ2zs2jU8rDDgaeH8Ki21HsTbz3pwjkZeVf0IgN/kbytXAG
LEA1YILwS+bqQvbLcQjdhx5MNzT89lXc2EoDtaJeu0txUM/W9GgmrgbxsrCv8uPI
LUvmjrIQ+WChVa6FJkBQrbKw+fmz3jkicDTEMwLldp+dGRh1W24h9hBYMkrCkIgE
hDxWWIW5WWxSdQbNX9Q4rNpIdQj7DqxQxypoJryBSAlAaXmQn6iVY/x2rQIDAQAB
MA0GCSqGSIb3DQEBCwUAA4IBAQDDBMyDUwO4nnD8mR69Kj/zgjskWnz8TZF7GpTp
MmPycvkaKKMSWt0Ateys7HKBMs3VTdAamJ6I2wgB13wQ94FJdOLnH5NTelWUfQ9T
Iijufp8jsQ1VzIcGqh+vN5hJqfhMI31Z1cNHvvssDO7GLjldoMGYakaOyf89xE/T
URgdTECK9aa+PG1Ie/5TRmWbhOsRjjKxCUB5OZO24kSLOGwuqG+LcC9kLt0xmGz0
376KdcVfj0szWSVhC9vct/ebsBYxC1WGvoRt7PQZLPXFSuMCH2s2/7TkzAWjHDno
gYfOqaVyQWLi2x5p167sHM9yFXHxjrua2fOjC5NOzWmygZ89
-----END CERTIFICATE-----
