Certificate:
    Data:
        Version: 1 (0x0)
        Serial Number: 2 (0x2)
        Signature Algorithm: sha256WithRSAEncryption
        Issuer: C=US, ST=MA, L=Boston, O=OMG-DDS SIG (Identity CA), CN=OMG-DDS (Iden CA)/emailAddress=dds@omg.org
        Validity
            Not Before: Aug 16 17:39:35 2023 GMT
            Not After : Aug 13 17:39:35 2033 GMT
        Subject: C=US, ST=CO, O=Twin Oaks Computing, CN=CN_TEST_DDS-SECURITY_TWINOAKS_COREDX/emailAddress=support@twinoakscomputing.com
        Subject Public Key Info:
            Public Key Algorithm: rsaEncryption
                Public-Key: (2048 bit)
                Modulus:
                    00:ca:e7:95:60:1a:01:f0:44:6a:3d:d6:98:7e:c3:
                    a3:49:fa:a8:5b:ce:57:09:39:5b:12:e8:e4:b0:51:
                    f6:d9:2d:64:73:99:9a:2a:a1:73:6f:39:64:73:4e:
                    df:bd:71:f9:87:5d:ad:c1:f3:48:20:56:43:84:42:
                    2a:2a:1c:f9:68:3a:4b:03:91:ad:ec:02:74:e5:ca:
                    c4:a3:01:24:62:4f:c2:8f:48:ff:60:1d:ed:7a:6c:
                    12:6f:bb:f3:2e:f7:f7:de:37:60:05:69:33:da:1f:
                    d1:af:83:ca:b3:a2:77:d6:18:98:9b:ff:bb:19:ad:
                    64:2e:ee:8c:29:25:00:6a:f8:76:4f:17:3b:17:2d:
                    a8:be:11:58:81:c1:70:f0:4d:75:5a:5f:ed:83:6c:
                    18:6f:26:4f:7e:47:c2:7c:0f:b7:e7:3b:a0:66:95:
                    9f:ca:73:c6:71:89:2c:34:54:82:cd:94:02:cc:66:
                    8d:13:d2:4a:08:a2:5d:04:0b:48:4c:1a:dd:00:24:
                    51:15:ff:b0:83:f1:32:9f:12:48:fa:d6:51:2f:4c:
                    cb:2b:43:a0:ff:c4:72:98:0e:92:6f:aa:d2:ca:af:
                    7f:a5:7f:f3:a7:c9:e2:e8:d8:20:df:e1:cf:4b:7d:
                    c1:09:86:85:27:f2:53:5c:8c:28:d0:3e:2d:f9:69:
                    f8:c3
                Exponent: 65537 (0x10001)
    Signature Algorithm: sha256WithRSAEncryption
    Signature Value:
        71:1d:56:50:c1:1d:13:da:ef:a1:9a:4f:22:fd:8f:70:f1:40:
        74:64:d8:c3:73:ec:ca:60:5e:0d:b2:21:05:38:83:b2:da:87:
        74:6b:0c:3c:64:9f:57:16:4c:a8:90:2a:a3:c3:1c:43:38:da:
        f3:8b:3a:5f:a7:10:65:dc:77:10:4a:be:37:53:38:e1:f2:bf:
        5b:ec:1d:22:ae:b8:74:33:20:8b:e3:50:d2:ae:40:9e:2c:dc:
        e1:60:d7:fa:d6:9c:85:cc:95:cc:b0:41:98:44:78:48:e1:0a:
        5e:bc:46:56:00:c8:dd:7a:8e:23:63:ce:4b:f5:9d:56:92:76:
        5a:26:ba:79:45:29:5f:4f:d5:4f:66:57:e8:f7:0f:ac:55:e6:
        30:40:eb:32:8a:63:e2:d8:6e:37:f2:b1:9a:2b:19:f2:1d:da:
        81:22:fe:98:d6:5e:29:97:18:5c:26:41:55:f1:b4:44:ea:93:
        65:b7:30:2b:0b:a0:d3:78:ce:24:63:bf:76:a8:f5:dc:f2:9d:
        4e:84:26:e1:12:8c:8d:ac:24:39:1d:5d:a5:f3:d6:6c:77:73:
        d8:77:33:00:18:f4:e9:71:a1:f9:8d:07:9f:8a:ca:ff:7a:0f:
        78:b5:b3:b4:24:6a:d2:12:bb:a4:fe:32:2b:b8:98:b9:35:8c:
        f9:a8:6f:9f
-----BEGIN CERTIFICATE-----
MIIDkjCCAnoCAQIwDQYJKoZIhvcNAQELBQAwgYcxCzAJBgNVBAYTAlVTMQswCQYD
VQQIDAJNQTEPMA0GA1UEBwwGQm9zdG9uMSIwIAYDVQQKDBlPTUctRERTIFNJRyAo
SWRlbnRpdHkgQ0EpMRowGAYDVQQDDBFPTUctRERTIChJZGVuIENBKTEaMBgGCSqG
SIb3DQEJARYLZGRzQG9tZy5vcmcwHhcNMjMwODE2MTczOTM1WhcNMzMwODEzMTcz
OTM1WjCBlTELMAkGA1UEBhMCVVMxCzAJBgNVBAgMAkNPMRwwGgYDVQQKDBNUd2lu
IE9ha3MgQ29tcHV0aW5nMS0wKwYDVQQDDCRDTl9URVNUX0REUy1TRUNVUklUWV9U
V0lOT0FLU19DT1JFRFgxLDAqBgkqhkiG9w0BCQEWHXN1cHBvcnRAdHdpbm9ha3Nj
b21wdXRpbmcuY29tMIIBIjANBgkqhkiG9w0BAQEFAAOCAQ8AMIIBCgKCAQEAyueV
YBoB8ERqPdaYfsOjSfqoW85XCTlbEujksFH22S1kc5maKqFzbzlkc07fvXH5h12t
wfNIIFZDhEIqKhz5aDpLA5Gt7AJ05crEowEkYk/Cj0j/YB3temwSb7vzLvf33jdg
BWkz2h/Rr4PKs6J31hiYm/+7Ga1kLu6MKSUAavh2Txc7Fy2ovhFYgcFw8E11Wl/t
g2wYbyZPfkfCfA+35zugZpWfynPGcYksNFSCzZQCzGaNE9JKCKJdBAtITBrdACRR
Ff+wg/EynxJI+tZRL0zLK0Og/8RymA6Sb6rSyq9/pX/zp8ni6Ngg3+HPS33BCYaF
J/JTXIwo0D4t+Wn4wwIDAQABMA0GCSqGSIb3DQEBCwUAA4IBAQBxHVZQwR0T2u+h
mk8i/Y9w8UB0ZNjDc+zKYF4NsiEFOIOy2od0aww8ZJ9XFkyokCqjwxxDONrzizpf
pxBl3HcQSr43Uzjh8r9b7B0irrh0MyCL41DSrkCeLNzhYNf61pyFzJXMsEGYRHhI
4QpevEZWAMjdeo4jY85L9Z1WknZaJrp5RSlfT9VPZlfo9w+sVeYwQOsyimPi2G43
8rGaKxnyHdqBIv6Y1l4plxhcJkFV8bRE6pNltzArC6DTeM4kY792qPXc8p1OhCbh
EoyNrCQ5HV2l89Zsd3PYdzMAGPTpcaH5jQefisr/eg94tbO0JGrSEruk/jIruJi5
NYz5qG+f
-----END CERTIFICATE-----
