Certificate:
    Data:
        Version: 1 (0x0)
        Serial Number: 3 (0x3)
        Signature Algorithm: sha256WithRSAEncryption
        Issuer: C=US, ST=MA, L=Boston, O=OMG-DDS SIG (Identity CA), CN=OMG-DDS (Iden CA)/emailAddress=dds@omg.org
        Validity
            Not Before: Aug 16 17:39:37 2023 GMT
            Not After : Aug 13 17:39:37 2033 GMT
        Subject: C=NO, O=Kongsberg Defence and Aerospace, CN=kda_intercom_dds
        Subject Public Key Info:
            Public Key Algorithm: rsaEncryption
                Public-Key: (2048 bit)
                Modulus:
                    00:c4:6f:b4:79:1f:7b:98:5f:69:c3:55:55:5d:70:
                    05:c0:bb:ac:64:9b:96:8b:e0:c6:c5:2b:82:2d:35:
                    e8:30:80:59:ee:db:e8:e5:d2:1f:32:e6:33:6f:18:
                    8f:c5:1e:b1:4a:fc:dc:2c:a3:12:2e:0d:56:5d:23:
                    92:be:46:98:4d:9c:e9:62:55:16:84:23:a8:9a:34:
                    dd:76:ca:7c:26:1a:a4:60:f9:86:81:b6:c1:7d:34:
                    2b:c5:1c:5f:05:a5:d8:c9:a6:78:12:3a:85:f3:5c:
                    84:05:a3:6f:39:fa:07:0c:18:ff:6c:c7:01:2a:5e:
                    89:4d:d8:c9:65:7a:d4:47:6d:2a:98:3b:0c:ec:90:
                    7a:54:fd:5d:3f:98:5d:8e:04:5a:63:c5:17:65:1b:
                    f8:b0:54:15:25:2f:e9:5c:a3:bf:89:d7:20:6a:d9:
                    43:95:0f:33:71:b5:77:ce:0f:9b:84:b6:f3:29:19:
                    06:e3:76:66:c3:7c:0b:83:3f:7e:86:ff:b1:f8:1c:
                    bb:91:24:14:1c:1d:43:9e:47:44:ac:15:99:4d:13:
                    f8:49:b6:70:c9:bb:74:8a:26:ea:d0:8b:85:87:73:
                    09:17:c7:b0:58:30:21:23:4d:25:bb:6c:1a:4c:02:
                    8f:8e:c7:ff:2b:57:bb:71:3a:71:2c:3f:a3:11:04:
                    09:0d
                Exponent: 65537 (0x10001)
    Signature Algorithm: sha256WithRSAEncryption
    Signature Value:
        85:59:da:81:e1:7c:91:b2:a1:92:0c:d5:b2:54:66:87:d4:a2:
        81:de:4d:06:a0:0f:f3:7b:b4:36:66:57:e5:1c:a8:f6:c6:f3:
        e7:4b:11:43:b8:dc:c7:b4:03:d5:16:44:cc:aa:32:eb:8d:40:
        65:31:49:d4:94:9f:09:ea:67:8c:0b:99:16:5b:a0:30:c2:f0:
        8c:72:3c:0d:b6:56:47:86:3d:ce:32:28:20:4d:da:07:74:68:
        8e:39:a0:95:75:a6:eb:61:6b:ed:b6:8c:e6:92:84:25:a5:dd:
        4a:c5:0a:86:a7:cd:e9:99:ee:ee:45:61:8f:f1:e6:51:6b:c2:
        0a:c3:1b:7f:46:e8:c0:c8:92:3f:4d:ab:46:60:48:e1:e5:87:
        fb:f0:12:0d:22:8f:79:79:c1:12:4c:db:c7:ad:36:fe:48:01:
        9b:6d:45:92:e0:fa:12:d8:4c:86:41:d6:b3:40:a0:f8:d7:46:
        af:7c:a5:51:5e:fb:bb:fb:8f:99:f5:ed:de:d7:0d:a4:7b:01:
        d9:a4:0c:e3:8d:bd:f9:bc:60:0b:4c:07:78:0d:67:64:00:5e:
        8e:10:a3:74:b3:dd:24:12:1f:38:27:47:5c:c1:1f:4f:f5:71:
        fb:11:02:a3:3e:df:89:87:41:67:ff:4f:67:27:ba:f7:c2:2a:
        14:72:d8:aa
-----BEGIN CERTIFICATE-----
MIIDTjCCAjYCAQMwDQYJKoZIhvcNAQELBQAwgYcxCzAJBgNVBAYTAlVTMQswCQYD
VQQIDAJNQTEPMA0GA1UEBwwGQm9zdG9uMSIwIAYDVQQKDBlPTUctRERTIFNJRyAo
SWRlbnRpdHkgQ0EpMRowGAYDVQQDDBFPTUctRERTIChJZGVuIENBKTEaMBgGCSqG
SIb3DQEJARYLZGRzQG9tZy5vcmcwHhcNMjMwODE2MTczOTM3WhcNMzMwODEzMTcz
OTM3WjBSMQswCQYDVQQGEwJOTzEoMCYGA1UECgwfS29uZ3NiZXJnIERlZmVuY2Ug
YW5kIEFlcm9zcGFjZTEZMBcGA1UEAwwQa2RhX2ludGVyY29tX2RkczCCASIwDQYJ
KoZIhvcNAQEBBQADggEPADCCAQoCggEBAMRvtHkfe5hfacNVVV1wBcC7rGSblovg
xsUrgi016DCAWe7b6OXSHzLmM28Yj8UesUr83CyjEi4NVl0jkr5GmE2c6WJVFoQj
qJo03XbKfCYapGD5hoG2wX00K8UcXwWl2MmmeBI6hfNchAWjbzn6BwwY/2zHASpe
iU3YyWV61EdtKpg7DOyQelT9XT+YXY4EWmPFF2Ub+LBUFSUv6Vyjv4nXIGrZQ5UP
M3G1d84Pm4S28ykZBuN2ZsN8C4M/fob/sfgcu5EkFBwdQ55HRKwVmU0T+Em2cMm7
dIom6tCLhYdzCRfHsFgwISNNJbtsGkwCj47H/ytXu3E6cSw/oxEECQ0CAwEAATAN
BgkqhkiG9w0BAQsFAAOCAQEAhVnageF8kbKhkgzVslRmh9Sigd5NBqAP83u0NmZX
5Ryo9sbz50sRQ7jcx7QD1RZEzKoy641AZTFJ1JSfCepnjAuZFlugMMLwjHI8DbZW
R4Y9zjIoIE3aB3RojjmglXWm62Fr7baM5pKEJaXdSsUKhqfN6Znu7kVhj/HmUWvC
CsMbf0bowMiSP02rRmBI4eWH+/ASDSKPeXnBEkzbx602/kgBm21FkuD6EthMhkHW
s0Cg+NdGr3ylUV77u/uPmfXt3tcNpHsB2aQM4429+bxgC0wHeA1nZABejhCjdLPd
JBIfOCdHXMEfT/Vx+xECoz7fiYdBZ/9PZye698IqFHLYqg==
-----END CERTIFICATE-----
