Certificate:
    Data:
        Version: 1 (0x0)
        Serial Number: 4 (0x4)
        Signature Algorithm: sha256WithRSAEncryption
        Issuer: C=US, ST=MA, L=Boston, O=OMG-DDS SIG (Identity CA), CN=OMG-DDS (Iden CA)/emailAddress=dds@omg.org
        Validity
            Not Before: Aug 16 17:39:38 2023 GMT
            Not After : Aug 13 17:39:38 2033 GMT
        Subject: C=US, ST=MO, O=Object Computing, CN=CN_TEST_DDS-SECURITY_OCI_OPENDDS/emailAddress=support@objectcomputing.com
        Subject Public Key Info:
            Public Key Algorithm: rsaEncryption
                Public-Key: (2048 bit)
                Modulus:
                    00:cd:0c:29:44:bc:26:9e:6f:89:88:b9:5d:63:b6:
                    36:23:d5:9d:46:03:63:2e:3b:89:55:2f:32:3c:0f:
                    45:b0:c8:22:58:91:11:b2:fd:d0:8a:b8:b4:ba:9c:
                    88:c8:56:8b:6f:61:f9:f9:0a:89:da:27:a2:31:cf:
                    56:9c:37:e6:ee:9a:8d:8e:a1:ee:2a:4f:f2:34:dd:
                    77:9f:f0:fe:80:7f:fd:09:30:75:bc:a0:d2:64:b5:
                    aa:9a:09:ee:f6:f0:ca:7a:be:72:75:8d:29:e4:53:
                    01:58:82:86:1e:ed:1e:4c:e8:af:54:6e:85:83:6c:
                    3b:20:f0:fd:32:9b:e4:98:87:80:1b:87:ef:27:df:
                    c7:4b:37:7c:ee:80:90:21:e6:c1:bf:b9:f7:42:04:
                    10:0d:ac:a0:fa:2c:5b:e9:b9:a9:79:26:ac:16:5c:
                    bc:a8:0d:a1:71:cb:b7:0d:84:d2:fc:0d:4a:1e:41:
                    3c:e5:7a:a4:ef:d6:02:38:67:e3:20:5e:f3:60:4a:
                    d9:7d:b4:25:e7:3b:5c:72:c0:e6:0f:8e:14:f9:73:
                    e6:b6:89:7d:6d:f8:08:ec:66:93:c2:59:a7:15:14:
                    61:32:80:f6:6e:23:55:ec:a6:dd:da:b8:1e:28:38:
                    c7:ac:44:d1:4d:86:c8:b5:f7:66:d6:c0:5f:17:39:
                    2f:29
                Exponent: 65537 (0x10001)
    Signature Algorithm: sha256WithRSAEncryption
    Signature Value:
        90:52:84:a0:6c:fb:c3:9b:04:9f:30:05:1f:10:0e:66:1d:11:
        62:77:18:d4:52:05:73:e1:ad:23:fe:6f:fc:96:b0:5f:89:b0:
        b6:16:a8:12:ea:07:e2:ec:fc:aa:17:d9:85:95:66:f0:8b:e4:
        46:7d:d6:cc:35:e5:8f:86:cc:8a:d5:b2:7c:17:e3:1a:66:cf:
        4f:9e:df:ff:36:47:28:0b:f5:89:b1:be:a6:30:c3:3d:f8:02:
        3f:a8:ac:c3:53:5c:33:dd:49:0b:12:a9:47:3b:d6:61:90:c5:
        af:0a:6f:9f:33:29:2d:85:e8:9d:cd:b6:bf:42:c8:a2:05:ea:
        2e:a1:a4:53:df:fa:c4:e1:46:5c:22:35:82:08:28:fa:9f:ff:
        20:43:b3:fa:a2:dc:14:ba:0d:1b:f6:b9:eb:79:30:29:c1:57:
        06:2b:03:6a:e1:92:9e:ee:85:62:7a:62:bd:b4:b1:02:a8:49:
        95:ef:59:5e:54:ad:e8:74:c8:1c:c2:81:95:6e:0e:0b:f4:df:
        fc:b8:72:c3:40:d5:2c:22:db:75:8b:17:9e:b4:d5:14:2b:1b:
        fa:ae:68:bf:0e:26:98:82:d6:38:6e:7c:8f:6a:02:0e:e1:bb:
        d4:9c:42:f4:b9:0d:12:98:c4:87:a6:2b:43:c0:f9:61:1a:22:
        54:e2:cb:4d
-----BEGIN CERTIFICATE-----
MIIDiTCCAnECAQQwDQYJKoZIhvcNAQELBQAwgYcxCzAJBgNVBAYTAlVTMQswCQYD
VQQIDAJNQTEPMA0GA1UEBwwGQm9zdG9uMSIwIAYDVQQKDBlPTUctRERTIFNJRyAo
SWRlbnRpdHkgQ0EpMRowGAYDVQQDDBFPTUctRERTIChJZGVuIENBKTEaMBgGCSqG
SIb3DQEJARYLZGRzQG9tZy5vcmcwHhcNMjMwODE2MTczOTM4WhcNMzMwODEzMTcz
OTM4WjCBjDELMAkGA1UEBhMCVVMxCzAJBgNVBAgMAk1PMRkwFwYDVQQKDBBPYmpl
Y3QgQ29tcHV0aW5nMSkwJwYDVQQDDCBDTl9URVNUX0REUy1TRUNVUklUWV9PQ0lf
T1BFTkREUzEqMCgGCSqGSIb3DQEJARYbc3VwcG9ydEBvYmplY3Rjb21wdXRpbmcu
Y29tMIIBIjANBgkqhkiG9w0BAQEFAAOCAQ8AMIIBCgKCAQEAzQwpRLwmnm+JiLld
Y7Y2I9WdRgNjLjuJVS8yPA9FsMgiWJERsv3Qiri0upyIyFaLb2H5+QqJ2ieiMc9W
nDfm7pqNjqHuKk/yNN13n/D+gH/9CTB1vKDSZLWqmgnu9vDKer5ydY0p5FMBWIKG
Hu0eTOivVG6Fg2w7IPD9MpvkmIeAG4fvJ9/HSzd87oCQIebBv7n3QgQQDayg+ixb
6bmpeSasFly8qA2hccu3DYTS/A1KHkE85Xqk79YCOGfjIF7zYErZfbQl5ztccsDm
D44U+XPmtol9bfgI7GaTwlmnFRRhMoD2biNV7Kbd2rgeKDjHrETRTYbItfdm1sBf
FzkvKQIDAQABMA0GCSqGSIb3DQEBCwUAA4IBAQCQUoSgbPvDmwSfMAUfEA5mHRFi
dxjUUgVz4a0j/m/8lrBfibC2FqgS6gfi7PyqF9mFlWbwi+RGfdbMNeWPhsyK1bJ8
F+MaZs9Pnt//NkcoC/WJsb6mMMM9+AI/qKzDU1wz3UkLEqlHO9ZhkMWvCm+fMykt
heidzba/QsiiBeouoaRT3/rE4UZcIjWCCCj6n/8gQ7P6otwUug0b9rnreTApwVcG
KwNq4ZKe7oViemK9tLECqEmV71leVK3odMgcwoGVbg4L9N/8uHLDQNUsItt1ixee
tNUUKxv6rmi/DiaYgtY4bnyPagIO4bvUnEL0uQ0SmMSHpitDwPlhGiJU4stN
-----END CERTIFICATE-----
