Certificate:
    Data:
        Version: 1 (0x0)
        Serial Number: 4 (0x4)
    Signature Algorithm: sha256WithRSAEncryption
        Issuer: C=US, ST=MA, L=Boston, O=OMG-DDS SIG (Identity CA), CN=OMG-DDS (Iden CA)/emailAddress=dds@omg.org
        Validity
            Not Before: Nov 20 10:06:36 2017 GMT
            Not After : Nov 18 10:06:36 2027 GMT
        Subject: C=FR, ST=FR, O=ADLINK, CN=CN_TEST_DDS-SECURITY_AD_VORTEX_DDS/emailAddress=support@adlinktech.com
        Subject Public Key Info:
            Public Key Algorithm: rsaEncryption
                Public-Key: (2048 bit)
                Modulus:
                    00:b6:37:e8:7b:fb:60:ea:e6:ef:8d:e2:67:e9:10:
                    0a:9c:94:1f:fe:be:61:b1:d4:bc:1e:20:f4:c9:19:
                    80:43:4a:54:f6:37:f0:bf:6e:3b:48:b2:99:87:11:
                    e5:61:1c:a0:14:cb:59:f0:35:93:4d:3f:fe:bc:f7:
                    e1:be:67:2e:1b:77:bd:5f:34:9e:28:97:25:fa:f5:
                    db:a7:a1:ba:47:4d:10:61:24:79:ec:d5:ff:9f:3a:
                    9e:21:1a:aa:63:d3:1c:e9:e4:76:74:51:64:80:ce:
                    2b:2f:b3:9f:57:0b:1c:68:b1:88:a7:0f:81:aa:a0:
                    82:10:c5:43:a6:71:b8:a2:6b:e5:be:88:81:cd:ae:
                    62:d7:79:67:29:f2:11:17:77:58:90:8d:96:c6:f5:
                    b9:e6:ac:29:e2:dd:d4:1d:44:f9:3e:60:9d:65:fc:
                    63:23:e6:b4:ea:ce:98:a6:9d:0b:bf:e1:88:e3:be:
                    2a:a1:f2:45:51:75:7e:03:bc:b9:36:5b:7f:61:49:
                    e4:97:58:01:ab:cf:75:3e:1a:11:eb:59:95:d7:4a:
                    2d:e5:b5:01:6f:51:ec:da:3d:cd:f0:da:52:a8:bc:
                    7a:16:c0:19:6f:3a:f4:93:95:1c:81:c2:1c:40:fc:
                    2a:6a:9b:42:30:1c:1c:fd:74:b3:d6:e8:f7:b3:99:
                    11:2f
                Exponent: 65537 (0x10001)
    Signature Algorithm: sha256WithRSAEncryption
         d6:d3:a2:a0:7d:0c:82:cc:71:fb:a9:a8:8c:38:4d:7a:b6:5c:
         2b:61:92:37:b5:d5:af:1e:a8:23:ad:7d:a5:9d:4f:4b:95:3c:
         93:62:b6:27:1c:0b:4f:71:3a:fe:ed:b0:82:ac:01:44:a6:51:
         34:80:44:ff:ad:c9:21:f5:8e:79:e5:ec:fe:2b:98:12:75:37:
         f7:70:38:22:1b:81:6f:9c:c2:fb:c9:c4:04:f9:a8:6e:e4:33:
         99:bd:33:66:ea:80:f2:fb:a2:89:a5:c5:96:43:22:01:3a:d2:
         d3:0e:67:5d:bd:2d:35:96:f5:23:2c:8c:2b:4d:35:e8:d9:45:
         21:a0:64:20:dd:37:c5:28:8d:9b:8e:aa:93:18:5f:d9:d7:3e:
         73:b2:ee:de:be:c6:4b:a3:c1:bb:ed:50:f1:f4:81:30:86:56:
         49:7b:d0:db:5a:48:96:4a:1c:61:e4:b7:24:dd:49:86:e4:93:
         3d:d8:06:b4:a2:14:22:a9:54:68:44:e4:44:1c:8e:74:3a:53:
         48:b5:d8:54:1b:00:25:ab:34:d0:88:ab:11:9e:91:80:77:88:
         42:3d:e7:f5:7f:fb:78:16:54:4b:fb:a1:e1:79:cd:95:e2:0b:
         4d:6b:65:c0:c6:1e:eb:1b:9c:66:8d:be:a4:d7:40:e9:c9:69:
         25:61:08:58
-----BEGIN CERTIFICATE-----
MIIDezCCAmMCAQQwDQYJKoZIhvcNAQELBQAwgYcxCzAJBgNVBAYTAlVTMQswCQYD
VQQIDAJNQTEPMA0GA1UEBwwGQm9zdG9uMSIwIAYDVQQKDBlPTUctRERTIFNJRyAo
SWRlbnRpdHkgQ0EpMRowGAYDVQQDDBFPTUctRERTIChJZGVuIENBKTEaMBgGCSqG
SIb3DQEJARYLZGRzQG9tZy5vcmcwHhcNMTcxMTIwMTAwNjM2WhcNMjcxMTE4MTAw
NjM2WjB/MQswCQYDVQQGEwJGUjELMAkGA1UECAwCRlIxDzANBgNVBAoMBkFETElO
SzErMCkGA1UEAwwiQ05fVEVTVF9ERFMtU0VDVVJJVFlfQURfVk9SVEVYX0REUzEl
MCMGCSqGSIb3DQEJARYWc3VwcG9ydEBhZGxpbmt0ZWNoLmNvbTCCASIwDQYJKoZI
hvcNAQEBBQADggEPADCCAQoCggEBALY36Hv7YOrm743iZ+kQCpyUH/6+YbHUvB4g
9MkZgENKVPY38L9uO0iymYcR5WEcoBTLWfA1k00//rz34b5nLht3vV80niiXJfr1
26ehukdNEGEkeezV/586niEaqmPTHOnkdnRRZIDOKy+zn1cLHGixiKcPgaqgghDF
Q6ZxuKJr5b6Igc2uYtd5ZynyERd3WJCNlsb1ueasKeLd1B1E+T5gnWX8YyPmtOrO
mKadC7/hiOO+KqHyRVF1fgO8uTZbf2FJ5JdYAavPdT4aEetZlddKLeW1AW9R7No9
zfDaUqi8ehbAGW869JOVHIHCHED8KmqbQjAcHP10s9bo97OZES8CAwEAATANBgkq
hkiG9w0BAQsFAAOCAQEA1tOioH0Mgsxx+6mojDhNerZcK2GSN7XVrx6oI619pZ1P
S5U8k2K2JxwLT3E6/u2wgqwBRKZRNIBE/63JIfWOeeXs/iuYEnU393A4IhuBb5zC
+8nEBPmobuQzmb0zZuqA8vuiiaXFlkMiATrS0w5nXb0tNZb1IyyMK0016NlFIaBk
IN03xSiNm46qkxhf2dc+c7Lu3r7GS6PBu+1Q8fSBMIZWSXvQ21pIlkocYeS3JN1J
huSTPdgGtKIUIqlUaETkRByOdDpTSLXYVBsAJas00IirEZ6RgHeIQj3n9X/7eBZU
S/uh4XnNleILTWtlwMYe6xucZo2+pNdA6clpJWEIWA==
-----END CERTIFICATE-----
