Certificate:
    Data:
        Version: 1 (0x0)
        Serial Number: 2 (0x2)
        Signature Algorithm: sha256WithRSAEncryption
        Issuer: C=US, ST=MA, L=Boston, O=OMG-DDS SIG (Identity CA), CN=OMG-DDS (Iden CA)/emailAddress=dds@omg.org
        Validity
            Not Before: Sep 12 02:00:40 2015 GMT
            Not After : Sep  9 02:00:40 2025 GMT
        Subject: C=US, ST=CO, O=Twin Oaks Computing, CN=CN_TEST_DDS-SECURITY_TWINOAKS_COREDX/emailAddress=support@twinoakscomputing.com
        Subject Public Key Info:
            Public Key Algorithm: rsaEncryption
            RSA Public Key: (2048 bit)
                Modulus (2048 bit):
                    00:ca:e7:95:60:1a:01:f0:44:6a:3d:d6:98:7e:c3:
                    a3:49:fa:a8:5b:ce:57:09:39:5b:12:e8:e4:b0:51:
                    f6:d9:2d:64:73:99:9a:2a:a1:73:6f:39:64:73:4e:
                    df:bd:71:f9:87:5d:ad:c1:f3:48:20:56:43:84:42:
                    2a:2a:1c:f9:68:3a:4b:03:91:ad:ec:02:74:e5:ca:
                    c4:a3:01:24:62:4f:c2:8f:48:ff:60:1d:ed:7a:6c:
                    12:6f:bb:f3:2e:f7:f7:de:37:60:05:69:33:da:1f:
                    d1:af:83:ca:b3:a2:77:d6:18:98:9b:ff:bb:19:ad:
                    64:2e:ee:8c:29:25:00:6a:f8:76:4f:17:3b:17:2d:
                    a8:be:11:58:81:c1:70:f0:4d:75:5a:5f:ed:83:6c:
                    18:6f:26:4f:7e:47:c2:7c:0f:b7:e7:3b:a0:66:95:
                    9f:ca:73:c6:71:89:2c:34:54:82:cd:94:02:cc:66:
                    8d:13:d2:4a:08:a2:5d:04:0b:48:4c:1a:dd:00:24:
                    51:15:ff:b0:83:f1:32:9f:12:48:fa:d6:51:2f:4c:
                    cb:2b:43:a0:ff:c4:72:98:0e:92:6f:aa:d2:ca:af:
                    7f:a5:7f:f3:a7:c9:e2:e8:d8:20:df:e1:cf:4b:7d:
                    c1:09:86:85:27:f2:53:5c:8c:28:d0:3e:2d:f9:69:
                    f8:c3
                Exponent: 65537 (0x10001)
    Signature Algorithm: sha256WithRSAEncryption
        cf:3b:72:50:c7:a4:ab:d5:2d:03:0b:54:57:12:bb:d5:ee:40:
        75:c9:86:30:84:be:c4:69:af:80:9c:e9:f2:d8:d3:e1:20:62:
        eb:a0:44:b8:d1:dc:4e:38:82:3b:9b:a8:54:86:44:a9:65:d9:
        f5:87:72:71:b5:c4:63:2a:58:69:26:c8:be:6e:83:a0:16:69:
        33:53:4b:7b:c2:f3:b1:c2:53:8b:7b:48:1c:58:cc:cd:7f:2d:
        f6:2e:c3:15:a2:d3:71:01:8c:68:58:16:97:3d:b7:c5:2a:43:
        80:f8:e7:67:3b:c1:fa:91:3f:76:21:c5:d4:f1:2d:34:f3:6c:
        ca:fe:2a:c8:ae:af:7f:48:76:75:4c:68:37:f9:cf:61:f2:ff:
        a1:b3:6a:6c:e5:a5:86:cd:22:28:79:58:ea:87:4b:a1:54:0e:
        cb:11:48:1d:14:66:09:dd:06:8d:3f:73:53:5e:61:92:73:13:
        d5:38:03:61:35:db:71:9d:5a:3b:6b:b4:0f:41:43:39:15:a0:
        13:16:6f:5d:a1:70:27:cd:c3:04:77:7b:d7:48:e4:91:15:0e:
        8b:3c:cb:e1:a4:1d:88:c1:f8:2b:cc:34:e2:eb:ec:51:64:8e:
        4d:c1:e3:be:f2:a0:6c:70:58:97:34:b3:3a:d2:59:30:ef:b2:
        72:7f:bd:22
-----BEGIN CERTIFICATE-----
MIIDkjCCAnoCAQIwDQYJKoZIhvcNAQELBQAwgYcxCzAJBgNVBAYTAlVTMQswCQYD
VQQIDAJNQTEPMA0GA1UEBwwGQm9zdG9uMSIwIAYDVQQKDBlPTUctRERTIFNJRyAo
SWRlbnRpdHkgQ0EpMRowGAYDVQQDDBFPTUctRERTIChJZGVuIENBKTEaMBgGCSqG
SIb3DQEJARYLZGRzQG9tZy5vcmcwHhcNMTUwOTEyMDIwMDQwWhcNMjUwOTA5MDIw
MDQwWjCBlTELMAkGA1UEBhMCVVMxCzAJBgNVBAgMAkNPMRwwGgYDVQQKDBNUd2lu
IE9ha3MgQ29tcHV0aW5nMS0wKwYDVQQDDCRDTl9URVNUX0REUy1TRUNVUklUWV9U
V0lOT0FLU19DT1JFRFgxLDAqBgkqhkiG9w0BCQEWHXN1cHBvcnRAdHdpbm9ha3Nj
b21wdXRpbmcuY29tMIIBIjANBgkqhkiG9w0BAQEFAAOCAQ8AMIIBCgKCAQEAyueV
YBoB8ERqPdaYfsOjSfqoW85XCTlbEujksFH22S1kc5maKqFzbzlkc07fvXH5h12t
wfNIIFZDhEIqKhz5aDpLA5Gt7AJ05crEowEkYk/Cj0j/YB3temwSb7vzLvf33jdg
BWkz2h/Rr4PKs6J31hiYm/+7Ga1kLu6MKSUAavh2Txc7Fy2ovhFYgcFw8E11Wl/t
g2wYbyZPfkfCfA+35zugZpWfynPGcYksNFSCzZQCzGaNE9JKCKJdBAtITBrdACRR
Ff+wg/EynxJI+tZRL0zLK0Og/8RymA6Sb6rSyq9/pX/zp8ni6Ngg3+HPS33BCYaF
J/JTXIwo0D4t+Wn4wwIDAQABMA0GCSqGSIb3DQEBCwUAA4IBAQDPO3JQx6Sr1S0D
C1RXErvV7kB1yYYwhL7Eaa+AnOny2NPhIGLroES40dxOOII7m6hUhkSpZdn1h3Jx
tcRjKlhpJsi+boOgFmkzU0t7wvOxwlOLe0gcWMzNfy32LsMVotNxAYxoWBaXPbfF
KkOA+OdnO8H6kT92IcXU8S0082zK/irIrq9/SHZ1TGg3+c9h8v+hs2ps5aWGzSIo
eVjqh0uhVA7LEUgdFGYJ3QaNP3NTXmGScxPVOANhNdtxnVo7a7QPQUM5FaATFm9d
oXAnzcMEd3vXSOSRFQ6LPMvhpB2IwfgrzDTi6+xRZI5NweO+8qBscFiXNLM60lkw
77Jyf70i
-----END CERTIFICATE-----
