Certificate:
    Data:
        Version: 1 (0x0)
        Serial Number: 18 (0x12)
        Signature Algorithm: sha256WithRSAEncryption
        Issuer: C=US, ST=MA, L=Boston, O=OMG-DDS SIG (Identity CA), CN=OMG-DDS (Iden CA)/emailAddress=dds@omg.org
        Validity
            Not Before: Nov  5 14:08:58 2020 GMT
            Not After : Nov  3 14:08:58 2030 GMT
        Subject: C=US, ST=CA, O=Real Time Innovations, CN=CN_TEST_DDS-SECURITY_RTI_CONNEXT_DDS-LOW_GUID_DH_TEST_54300/emailAddress=support@rti.com
        Subject Public Key Info:
            Public Key Algorithm: rsaEncryption
                RSA Public-Key: (2048 bit)
                Modulus:
                    00:b9:d3:fa:15:e0:63:ae:f7:06:23:0d:9f:a9:c3:
                    5e:84:96:25:5a:58:dc:31:f1:05:a4:1e:cc:d8:b6:
                    0a:33:9b:cd:3b:e1:d1:06:88:1a:cb:8d:ee:9e:9d:
                    e9:4e:c7:3c:52:9d:a2:2e:fd:4f:9d:7f:59:05:79:
                    d4:89:d8:2a:23:c7:ca:06:2c:05:43:74:c0:09:eb:
                    b5:cd:99:b1:2f:48:e6:d9:5e:bc:23:1c:0f:a4:f2:
                    24:3c:af:bd:8d:fd:7c:ec:50:5d:50:40:1f:08:ab:
                    4c:b1:5b:f2:ec:6c:93:bb:f5:80:b6:7d:ac:95:39:
                    c2:5b:69:3f:0b:bf:95:fa:25:65:c1:23:18:07:aa:
                    96:de:53:43:ff:1d:5a:07:83:9e:60:f3:69:90:6a:
                    3f:70:4c:6f:27:0f:d1:ac:81:f5:49:36:ba:2c:1b:
                    7f:7d:29:8e:d2:75:60:d5:09:ee:1b:7f:19:5a:d9:
                    74:33:a0:20:16:37:27:75:dd:b3:84:32:fc:a2:fa:
                    ae:c7:7e:f2:2c:23:f9:8e:69:1e:47:96:73:35:2b:
                    03:3e:22:31:e6:8d:b4:4f:a9:d9:0a:98:29:17:68:
                    29:6c:d7:53:66:6a:1b:ca:08:77:56:05:ac:03:25:
                    b0:9b:88:03:76:6e:6e:27:b0:57:8f:e6:17:99:a5:
                    9f:a1
                Exponent: 65537 (0x10001)
    Signature Algorithm: sha256WithRSAEncryption
         3b:2a:14:17:7b:55:3b:09:8a:3b:ba:1c:a8:89:79:22:c5:11:
         db:fc:c3:5a:4c:ef:61:eb:1a:04:28:2c:8f:56:41:b0:6c:95:
         e3:03:e5:9b:c0:10:82:31:68:bc:9e:de:42:f9:b2:f7:9d:0c:
         cb:44:81:67:0a:19:f6:bd:62:2d:55:4b:a4:6d:aa:7d:e6:a1:
         6a:85:72:6c:b9:3b:f0:19:e2:6b:5b:b0:c0:25:3a:1a:d1:af:
         80:0c:40:1a:a6:e0:8f:74:66:4f:33:35:94:91:77:b4:38:c0:
         94:ed:a3:a8:95:4b:93:0d:32:8a:9b:bf:d1:42:68:e8:70:bd:
         7e:3a:78:fa:31:97:b5:57:66:5f:9b:56:39:ed:61:08:26:a8:
         00:6f:2e:35:79:ac:2d:c3:e0:b8:ef:dd:fe:a9:33:7b:15:08:
         bc:a6:2e:a5:7c:4e:ee:f3:6f:20:36:55:b6:f2:a2:55:af:b5:
         d4:b0:48:e3:10:b3:9f:dc:97:0a:34:de:68:00:01:f8:36:c0:
         57:78:1c:b9:de:60:60:9d:6f:9d:49:6e:c8:64:9d:0b:a4:e2:
         44:c0:db:41:3c:2d:b0:3f:7d:e8:39:f0:06:76:ed:b0:e4:61:
         35:99:a7:32:77:b0:17:fa:23:82:2b:16:ba:7b:cf:3f:a3:5e:
         07:78:b5:0a
-----BEGIN CERTIFICATE-----
MIIDnTCCAoUCARIwDQYJKoZIhvcNAQELBQAwgYcxCzAJBgNVBAYTAlVTMQswCQYD
VQQIDAJNQTEPMA0GA1UEBwwGQm9zdG9uMSIwIAYDVQQKDBlPTUctRERTIFNJRyAo
SWRlbnRpdHkgQ0EpMRowGAYDVQQDDBFPTUctRERTIChJZGVuIENBKTEaMBgGCSqG
SIb3DQEJARYLZGRzQG9tZy5vcmcwHhcNMjAxMTA1MTQwODU4WhcNMzAxMTAzMTQw
ODU4WjCBoDELMAkGA1UEBhMCVVMxCzAJBgNVBAgMAkNBMR4wHAYDVQQKDBVSZWFs
IFRpbWUgSW5ub3ZhdGlvbnMxRDBCBgNVBAMMO0NOX1RFU1RfRERTLVNFQ1VSSVRZ
X1JUSV9DT05ORVhUX0REUy1MT1dfR1VJRF9ESF9URVNUXzU0MzAwMR4wHAYJKoZI
hvcNAQkBFg9zdXBwb3J0QHJ0aS5jb20wggEiMA0GCSqGSIb3DQEBAQUAA4IBDwAw
ggEKAoIBAQC50/oV4GOu9wYjDZ+pw16EliVaWNwx8QWkHszYtgozm8074dEGiBrL
je6enelOxzxSnaIu/U+df1kFedSJ2Cojx8oGLAVDdMAJ67XNmbEvSObZXrwjHA+k
8iQ8r72N/XzsUF1QQB8Iq0yxW/LsbJO79YC2fayVOcJbaT8Lv5X6JWXBIxgHqpbe
U0P/HVoHg55g82mQaj9wTG8nD9GsgfVJNrosG399KY7SdWDVCe4bfxla2XQzoCAW
Nyd13bOEMvyi+q7HfvIsI/mOaR5HlnM1KwM+IjHmjbRPqdkKmCkXaCls11NmahvK
CHdWBawDJbCbiAN2bm4nsFeP5heZpZ+hAgMBAAEwDQYJKoZIhvcNAQELBQADggEB
ADsqFBd7VTsJiju6HKiJeSLFEdv8w1pM72HrGgQoLI9WQbBsleMD5ZvAEIIxaLye
3kL5svedDMtEgWcKGfa9Yi1VS6Rtqn3moWqFcmy5O/AZ4mtbsMAlOhrRr4AMQBqm
4I90Zk8zNZSRd7Q4wJTto6iVS5MNMoqbv9FCaOhwvX46ePoxl7VXZl+bVjntYQgm
qABvLjV5rC3D4Ljv3f6pM3sVCLymLqV8Tu7zbyA2VbbyolWvtdSwSOMQs5/clwo0
3mgAAfg2wFd4HLneYGCdb51JbshknQuk4kTA20E8LbA/feg58AZ27bDkYTWZpzJ3
sBf6I4IrFrp7zz+jXgd4tQo=
-----END CERTIFICATE-----
