Certificate:
    Data:
        Version: 1 (0x0)
        Serial Number: 1 (0x1)
        Signature Algorithm: sha256WithRSAEncryption
        Issuer: C=US, ST=MA, L=Boston, O=OMG-DDS SIG (Identity CA), CN=OMG-DDS (Iden CA)/emailAddress=dds@omg.org
        Validity
            Not Before: Sep 12 01:59:52 2015 GMT
            Not After : Sep  9 01:59:52 2025 GMT
        Subject: C=US, ST=CA, O=Real Time Innovations, CN=CN_TEST_DDS-SECURITY_RTI_CONNEXT_DDS/emailAddress=support@rti.com
        Subject Public Key Info:
            Public Key Algorithm: rsaEncryption
            RSA Public Key: (2048 bit)
                Modulus (2048 bit):
                    00:b9:d3:fa:15:e0:63:ae:f7:06:23:0d:9f:a9:c3:
                    5e:84:96:25:5a:58:dc:31:f1:05:a4:1e:cc:d8:b6:
                    0a:33:9b:cd:3b:e1:d1:06:88:1a:cb:8d:ee:9e:9d:
                    e9:4e:c7:3c:52:9d:a2:2e:fd:4f:9d:7f:59:05:79:
                    d4:89:d8:2a:23:c7:ca:06:2c:05:43:74:c0:09:eb:
                    b5:cd:99:b1:2f:48:e6:d9:5e:bc:23:1c:0f:a4:f2:
                    24:3c:af:bd:8d:fd:7c:ec:50:5d:50:40:1f:08:ab:
                    4c:b1:5b:f2:ec:6c:93:bb:f5:80:b6:7d:ac:95:39:
                    c2:5b:69:3f:0b:bf:95:fa:25:65:c1:23:18:07:aa:
                    96:de:53:43:ff:1d:5a:07:83:9e:60:f3:69:90:6a:
                    3f:70:4c:6f:27:0f:d1:ac:81:f5:49:36:ba:2c:1b:
                    7f:7d:29:8e:d2:75:60:d5:09:ee:1b:7f:19:5a:d9:
                    74:33:a0:20:16:37:27:75:dd:b3:84:32:fc:a2:fa:
                    ae:c7:7e:f2:2c:23:f9:8e:69:1e:47:96:73:35:2b:
                    03:3e:22:31:e6:8d:b4:4f:a9:d9:0a:98:29:17:68:
                    29:6c:d7:53:66:6a:1b:ca:08:77:56:05:ac:03:25:
                    b0:9b:88:03:76:6e:6e:27:b0:57:8f:e6:17:99:a5:
                    9f:a1
                Exponent: 65537 (0x10001)
    Signature Algorithm: sha256WithRSAEncryption
        6f:7f:34:c7:e4:2f:61:80:63:9b:92:c6:43:5f:11:60:cc:2a:
        13:af:c7:04:be:20:65:53:9d:ff:7b:d4:ac:f2:89:bd:17:40:
        5c:74:6a:ac:e4:e1:71:b5:72:9b:28:62:51:ab:29:97:9d:e6:
        bd:2d:6c:5b:e1:3e:d1:fd:30:57:1d:5f:01:bf:83:7e:dc:99:
        37:df:74:b2:3f:3b:62:3f:b4:64:a4:ea:69:9d:96:3b:b7:a3:
        20:e9:fc:ef:98:d0:df:9f:88:5c:96:0c:80:74:87:86:7a:14:
        05:fd:e9:e9:10:ca:24:ff:d7:9b:84:42:03:c0:54:d7:34:f7:
        a3:ab:87:de:d5:ce:4c:1c:e7:ba:87:87:86:86:ff:7c:08:e3:
        5a:1e:8b:36:22:f6:92:d0:15:d5:69:68:a3:fc:51:0a:cb:0c:
        42:14:f5:42:59:a4:c8:f0:10:9c:0e:46:54:d5:c0:2f:88:c7:
        1a:aa:b8:73:95:22:14:dd:f3:22:64:4d:42:71:58:9e:dd:4c:
        51:1d:38:57:47:57:30:77:2d:cb:d8:70:51:c3:23:f8:49:36:
        ba:c8:67:5f:d5:56:e4:d9:6e:b2:88:5b:e2:b2:c6:df:aa:99:
        d4:16:b1:6c:bc:26:4c:a3:5f:ec:55:6c:64:20:86:4f:fa:55:
        bb:49:ed:57
-----BEGIN CERTIFICATE-----
MIIDhjCCAm4CAQEwDQYJKoZIhvcNAQELBQAwgYcxCzAJBgNVBAYTAlVTMQswCQYD
VQQIDAJNQTEPMA0GA1UEBwwGQm9zdG9uMSIwIAYDVQQKDBlPTUctRERTIFNJRyAo
SWRlbnRpdHkgQ0EpMRowGAYDVQQDDBFPTUctRERTIChJZGVuIENBKTEaMBgGCSqG
SIb3DQEJARYLZGRzQG9tZy5vcmcwHhcNMTUwOTEyMDE1OTUyWhcNMjUwOTA5MDE1
OTUyWjCBiTELMAkGA1UEBhMCVVMxCzAJBgNVBAgMAkNBMR4wHAYDVQQKDBVSZWFs
IFRpbWUgSW5ub3ZhdGlvbnMxLTArBgNVBAMMJENOX1RFU1RfRERTLVNFQ1VSSVRZ
X1JUSV9DT05ORVhUX0REUzEeMBwGCSqGSIb3DQEJARYPc3VwcG9ydEBydGkuY29t
MIIBIjANBgkqhkiG9w0BAQEFAAOCAQ8AMIIBCgKCAQEAudP6FeBjrvcGIw2fqcNe
hJYlWljcMfEFpB7M2LYKM5vNO+HRBogay43unp3pTsc8Up2iLv1PnX9ZBXnUidgq
I8fKBiwFQ3TACeu1zZmxL0jm2V68IxwPpPIkPK+9jf187FBdUEAfCKtMsVvy7GyT
u/WAtn2slTnCW2k/C7+V+iVlwSMYB6qW3lND/x1aB4OeYPNpkGo/cExvJw/RrIH1
STa6LBt/fSmO0nVg1QnuG38ZWtl0M6AgFjcndd2zhDL8ovqux37yLCP5jmkeR5Zz
NSsDPiIx5o20T6nZCpgpF2gpbNdTZmobygh3VgWsAyWwm4gDdm5uJ7BXj+YXmaWf
oQIDAQABMA0GCSqGSIb3DQEBCwUAA4IBAQBvfzTH5C9hgGObksZDXxFgzCoTr8cE
viBlU53/e9Ss8om9F0BcdGqs5OFxtXKbKGJRqymXnea9LWxb4T7R/TBXHV8Bv4N+
3Jk333SyPztiP7RkpOppnZY7t6Mg6fzvmNDfn4hclgyAdIeGehQF/enpEMok/9eb
hEIDwFTXNPejq4fe1c5MHOe6h4eGhv98CONaHos2IvaS0BXVaWij/FEKywxCFPVC
WaTI8BCcDkZU1cAviMcaqrhzlSIU3fMiZE1CcVie3UxRHThXR1cwdy3L2HBRwyP4
STa6yGdf1Vbk2W6yiFvissbfqpnUFrFsvCZMo1/sVWxkIIZP+lW7Se1X
-----END CERTIFICATE-----
