Certificate:
    Data:
        Version: 1 (0x0)
        Serial Number: 1 (0x1)
        Signature Algorithm: sha256WithRSAEncryption
        Issuer: C=US, ST=MA, L=Boston, O=OMG-DDS SIG (Identity CA), CN=OMG-DDS (Iden CA)/emailAddress=dds@omg.org
        Validity
            Not Before: Aug 16 17:39:20 2023 GMT
            Not After : Aug 13 17:39:20 2033 GMT
        Subject: C=US, ST=CA, O=Real Time Innovations, CN=CN_TEST_DDS-SECURITY_RTI_CONNEXT_DDS/emailAddress=support@rti.com
        Subject Public Key Info:
            Public Key Algorithm: rsaEncryption
                Public-Key: (2048 bit)
                Modulus:
                    00:b9:d3:fa:15:e0:63:ae:f7:06:23:0d:9f:a9:c3:
                    5e:84:96:25:5a:58:dc:31:f1:05:a4:1e:cc:d8:b6:
                    0a:33:9b:cd:3b:e1:d1:06:88:1a:cb:8d:ee:9e:9d:
                    e9:4e:c7:3c:52:9d:a2:2e:fd:4f:9d:7f:59:05:79:
                    d4:89:d8:2a:23:c7:ca:06:2c:05:43:74:c0:09:eb:
                    b5:cd:99:b1:2f:48:e6:d9:5e:bc:23:1c:0f:a4:f2:
                    24:3c:af:bd:8d:fd:7c:ec:50:5d:50:40:1f:08:ab:
                    4c:b1:5b:f2:ec:6c:93:bb:f5:80:b6:7d:ac:95:39:
                    c2:5b:69:3f:0b:bf:95:fa:25:65:c1:23:18:07:aa:
                    96:de:53:43:ff:1d:5a:07:83:9e:60:f3:69:90:6a:
                    3f:70:4c:6f:27:0f:d1:ac:81:f5:49:36:ba:2c:1b:
                    7f:7d:29:8e:d2:75:60:d5:09:ee:1b:7f:19:5a:d9:
                    74:33:a0:20:16:37:27:75:dd:b3:84:32:fc:a2:fa:
                    ae:c7:7e:f2:2c:23:f9:8e:69:1e:47:96:73:35:2b:
                    03:3e:22:31:e6:8d:b4:4f:a9:d9:0a:98:29:17:68:
                    29:6c:d7:53:66:6a:1b:ca:08:77:56:05:ac:03:25:
                    b0:9b:88:03:76:6e:6e:27:b0:57:8f:e6:17:99:a5:
                    9f:a1
                Exponent: 65537 (0x10001)
    Signature Algorithm: sha256WithRSAEncryption
    Signature Value:
        03:6d:d4:a7:69:63:77:0b:ff:69:9b:19:9e:f9:4c:df:49:33:
        5e:bf:a6:b9:d9:1f:47:5a:a0:74:54:66:1e:2b:15:3f:e2:13:
        1e:03:0e:04:19:e7:e5:f6:97:13:c9:52:9c:cf:af:2c:26:40:
        7d:ee:ac:35:61:91:0e:bb:67:a4:6b:7c:b9:ac:0e:47:4d:cf:
        09:20:4d:6c:58:89:74:9f:29:71:7b:9d:89:13:fe:eb:92:05:
        18:9c:25:bb:5c:08:64:52:93:bd:3d:82:6e:29:4d:07:89:12:
        57:f5:96:43:9a:ed:e7:b7:08:82:a4:30:36:85:22:1b:a6:27:
        a9:15:e5:c2:38:c5:c7:4b:51:1a:a3:ec:43:88:09:d6:fc:93:
        ff:34:8f:42:3a:c5:c1:35:eb:b0:8e:32:5e:3d:97:94:31:00:
        89:18:bd:41:ad:1a:55:e6:ce:1b:81:13:c1:5c:9c:80:93:be:
        b5:ff:fc:25:6b:6b:fa:82:59:57:05:50:f5:4d:7d:13:b9:4b:
        6e:a5:e7:de:df:75:a9:98:3d:3e:80:50:17:5d:a2:9a:b9:40:
        00:4f:ec:3d:b0:46:11:d2:f9:27:07:88:06:ff:fb:bf:73:16:
        e0:d9:f0:40:e3:86:9a:32:fd:0b:1f:72:eb:2b:41:33:8d:d6:
        e4:4d:80:e1
-----BEGIN CERTIFICATE-----
MIIDhjCCAm4CAQEwDQYJKoZIhvcNAQELBQAwgYcxCzAJBgNVBAYTAlVTMQswCQYD
VQQIDAJNQTEPMA0GA1UEBwwGQm9zdG9uMSIwIAYDVQQKDBlPTUctRERTIFNJRyAo
SWRlbnRpdHkgQ0EpMRowGAYDVQQDDBFPTUctRERTIChJZGVuIENBKTEaMBgGCSqG
SIb3DQEJARYLZGRzQG9tZy5vcmcwHhcNMjMwODE2MTczOTIwWhcNMzMwODEzMTcz
OTIwWjCBiTELMAkGA1UEBhMCVVMxCzAJBgNVBAgMAkNBMR4wHAYDVQQKDBVSZWFs
IFRpbWUgSW5ub3ZhdGlvbnMxLTArBgNVBAMMJENOX1RFU1RfRERTLVNFQ1VSSVRZ
X1JUSV9DT05ORVhUX0REUzEeMBwGCSqGSIb3DQEJARYPc3VwcG9ydEBydGkuY29t
MIIBIjANBgkqhkiG9w0BAQEFAAOCAQ8AMIIBCgKCAQEAudP6FeBjrvcGIw2fqcNe
hJYlWljcMfEFpB7M2LYKM5vNO+HRBogay43unp3pTsc8Up2iLv1PnX9ZBXnUidgq
I8fKBiwFQ3TACeu1zZmxL0jm2V68IxwPpPIkPK+9jf187FBdUEAfCKtMsVvy7GyT
u/WAtn2slTnCW2k/C7+V+iVlwSMYB6qW3lND/x1aB4OeYPNpkGo/cExvJw/RrIH1
STa6LBt/fSmO0nVg1QnuG38ZWtl0M6AgFjcndd2zhDL8ovqux37yLCP5jmkeR5Zz
NSsDPiIx5o20T6nZCpgpF2gpbNdTZmobygh3VgWsAyWwm4gDdm5uJ7BXj+YXmaWf
oQIDAQABMA0GCSqGSIb3DQEBCwUAA4IBAQADbdSnaWN3C/9pmxme+UzfSTNev6a5
2R9HWqB0VGYeKxU/4hMeAw4EGefl9pcTyVKcz68sJkB97qw1YZEOu2eka3y5rA5H
Tc8JIE1sWIl0nylxe52JE/7rkgUYnCW7XAhkUpO9PYJuKU0HiRJX9ZZDmu3ntwiC
pDA2hSIbpiepFeXCOMXHS1Eao+xDiAnW/JP/NI9COsXBNeuwjjJePZeUMQCJGL1B
rRpV5s4bgRPBXJyAk761//wla2v6gllXBVD1TX0TuUtupefe33WpmD0+gFAXXaKa
uUAAT+w9sEYR0vknB4gG//u/cxbg2fBA44aaMv0LH3LrK0EzjdbkTYDh
-----END CERTIFICATE-----
