Certificate:
    Data:
        Version: 1 (0x0)
        Serial Number: 23 (0x17)
    Signature Algorithm: sha256WithRSAEncryption
        Issuer: C=US, ST=MA, L=Boston, O=OMG-DDS SIG (Identity CA), CN=OMG-DDS (Iden CA)/emailAddress=dds@omg.org
        Validity
            Not Before: May 28 07:34:00 2017 GMT
            Not After : May 26 07:34:00 2027 GMT
        Subject: C=NO, O=Kongsberg Defence and Aerospace, CN=kda_intercom_dds
        Subject Public Key Info:
            Public Key Algorithm: rsaEncryption
                Public-Key: (2048 bit)
                Modulus:
                    00:c4:6f:b4:79:1f:7b:98:5f:69:c3:55:55:5d:70:
                    05:c0:bb:ac:64:9b:96:8b:e0:c6:c5:2b:82:2d:35:
                    e8:30:80:59:ee:db:e8:e5:d2:1f:32:e6:33:6f:18:
                    8f:c5:1e:b1:4a:fc:dc:2c:a3:12:2e:0d:56:5d:23:
                    92:be:46:98:4d:9c:e9:62:55:16:84:23:a8:9a:34:
                    dd:76:ca:7c:26:1a:a4:60:f9:86:81:b6:c1:7d:34:
                    2b:c5:1c:5f:05:a5:d8:c9:a6:78:12:3a:85:f3:5c:
                    84:05:a3:6f:39:fa:07:0c:18:ff:6c:c7:01:2a:5e:
                    89:4d:d8:c9:65:7a:d4:47:6d:2a:98:3b:0c:ec:90:
                    7a:54:fd:5d:3f:98:5d:8e:04:5a:63:c5:17:65:1b:
                    f8:b0:54:15:25:2f:e9:5c:a3:bf:89:d7:20:6a:d9:
                    43:95:0f:33:71:b5:77:ce:0f:9b:84:b6:f3:29:19:
                    06:e3:76:66:c3:7c:0b:83:3f:7e:86:ff:b1:f8:1c:
                    bb:91:24:14:1c:1d:43:9e:47:44:ac:15:99:4d:13:
                    f8:49:b6:70:c9:bb:74:8a:26:ea:d0:8b:85:87:73:
                    09:17:c7:b0:58:30:21:23:4d:25:bb:6c:1a:4c:02:
                    8f:8e:c7:ff:2b:57:bb:71:3a:71:2c:3f:a3:11:04:
                    09:0d
                Exponent: 65537 (0x10001)
    Signature Algorithm: sha256WithRSAEncryption
         12:e3:f8:bf:d4:4a:d9:b1:6a:3d:4e:3a:8e:21:49:ce:96:d3:
         73:fd:45:8c:12:73:86:10:65:fd:f4:f5:bf:ed:15:e6:c7:64:
         93:09:d8:04:54:e3:c5:cc:23:03:a2:84:54:74:15:60:a8:0f:
         21:c2:db:eb:e8:74:df:aa:9c:1d:25:13:a6:4f:d6:4e:a4:f3:
         38:09:c2:8a:11:ce:0d:d1:13:81:db:bd:e2:51:1f:f3:06:a7:
         13:db:a3:0e:33:87:c7:90:75:ec:45:80:97:cb:73:67:e7:5c:
         55:77:9b:3a:84:64:5e:b7:b0:f4:d7:9a:63:c5:98:73:b0:ac:
         85:24:41:85:d7:38:1c:10:8a:30:33:43:80:97:a8:11:f5:e2:
         11:db:84:ab:92:fc:44:36:44:14:61:c4:fb:f3:1d:44:78:90:
         c5:08:fd:cd:6d:ba:26:d5:6b:5f:5e:2d:72:10:5c:c5:bd:77:
         59:3f:88:b5:81:af:af:bf:5a:69:da:df:3a:56:a1:53:ff:7c:
         33:56:05:0f:e0:d5:96:25:75:0f:f9:8a:d7:e8:23:da:5d:ea:
         f8:af:cf:f6:5e:cb:b3:3b:69:cf:12:38:96:a0:01:59:be:97:
         a1:91:75:6d:9f:ea:f5:ae:d8:7b:1c:37:85:55:00:07:e7:11:
         04:d2:d1:cb
-----BEGIN CERTIFICATE-----
MIIDTjCCAjYCARcwDQYJKoZIhvcNAQELBQAwgYcxCzAJBgNVBAYTAlVTMQswCQYD
VQQIDAJNQTEPMA0GA1UEBwwGQm9zdG9uMSIwIAYDVQQKDBlPTUctRERTIFNJRyAo
SWRlbnRpdHkgQ0EpMRowGAYDVQQDDBFPTUctRERTIChJZGVuIENBKTEaMBgGCSqG
SIb3DQEJARYLZGRzQG9tZy5vcmcwHhcNMTcwNTI4MDczNDAwWhcNMjcwNTI2MDcz
NDAwWjBSMQswCQYDVQQGEwJOTzEoMCYGA1UECgwfS29uZ3NiZXJnIERlZmVuY2Ug
YW5kIEFlcm9zcGFjZTEZMBcGA1UEAwwQa2RhX2ludGVyY29tX2RkczCCASIwDQYJ
KoZIhvcNAQEBBQADggEPADCCAQoCggEBAMRvtHkfe5hfacNVVV1wBcC7rGSblovg
xsUrgi016DCAWe7b6OXSHzLmM28Yj8UesUr83CyjEi4NVl0jkr5GmE2c6WJVFoQj
qJo03XbKfCYapGD5hoG2wX00K8UcXwWl2MmmeBI6hfNchAWjbzn6BwwY/2zHASpe
iU3YyWV61EdtKpg7DOyQelT9XT+YXY4EWmPFF2Ub+LBUFSUv6Vyjv4nXIGrZQ5UP
M3G1d84Pm4S28ykZBuN2ZsN8C4M/fob/sfgcu5EkFBwdQ55HRKwVmU0T+Em2cMm7
dIom6tCLhYdzCRfHsFgwISNNJbtsGkwCj47H/ytXu3E6cSw/oxEECQ0CAwEAATAN
BgkqhkiG9w0BAQsFAAOCAQEAEuP4v9RK2bFqPU46jiFJzpbTc/1FjBJzhhBl/fT1
v+0V5sdkkwnYBFTjxcwjA6KEVHQVYKgPIcLb6+h036qcHSUTpk/WTqTzOAnCihHO
DdETgdu94lEf8wanE9ujDjOHx5B17EWAl8tzZ+dcVXebOoRkXrew9NeaY8WYc7Cs
hSRBhdc4HBCKMDNDgJeoEfXiEduEq5L8RDZEFGHE+/MdRHiQxQj9zW26JtVrX14t
chBcxb13WT+ItYGvr79aadrfOlahU/98M1YFD+DVliV1D/mK1+gj2l3q+K/P9l7L
sztpzxI4lqABWb6XoZF1bZ/q9a7Yexw3hVUAB+cRBNLRyw==
-----END CERTIFICATE-----
